target datalayout = "e-m:e-p270:32:32-p271:32:32-p272:64:64-i64:64-i128:128-f80:128-n8:16:32:64-S128"
target triple = "x86_64-pc-linux-gnu"

%struct.dirent = type { i64, i64, i16, i8, [256 x i8] }

@.str.15 = private unnamed_addr constant [2 x i8] c".\00", align 1
@.str.16 = private unnamed_addr constant [3 x i8] c"..\00", align 1

; Function Attrs: mustprogress nounwind uwtable
define hidden noundef zeroext i1 @_ZN2os12dir_is_emptyEPKc(ptr noundef %0) #1 align 2 {
  %2 = alloca i1, align 1
  %3 = alloca ptr, align 8
  %4 = alloca ptr, align 8
  %5 = alloca ptr, align 8
  %6 = alloca i8, align 1
  store ptr %0, ptr %3, align 8
  store ptr null, ptr %4, align 8
  %7 = load ptr, ptr %3, align 8
  %8 = call ptr @opendir(ptr noundef %7)
  store ptr %8, ptr %4, align 8
  %9 = load ptr, ptr %4, align 8
  %10 = icmp eq ptr %9, null
  br i1 %10, label %11, label %12

11:                                               ; preds = %1
  store i1 true, ptr %2, align 1
  br label %41

12:                                               ; preds = %1
  store i8 1, ptr %6, align 1
  br label %13

13:                                               ; preds = %35, %12
  %14 = load i8, ptr %6, align 1
  %15 = trunc i8 %14 to i1
  br i1 %15, label %16, label %20

16:                                               ; preds = %13
  %17 = load ptr, ptr %4, align 8
  %18 = call ptr @readdir64(ptr noundef %17)
  store ptr %18, ptr %5, align 8
  %19 = icmp ne ptr %18, null
  br label %20

20:                                               ; preds = %16, %13
  %21 = phi i1 [ false, %13 ], [ %19, %16 ]
  br i1 %21, label %22, label %36

22:                                               ; preds = %20
  %23 = load ptr, ptr %5, align 8
  %24 = getelementptr inbounds %struct.dirent, ptr %23, i32 0, i32 4
  %25 = getelementptr inbounds [256 x i8], ptr %24, i64 0, i64 0
  %26 = call i32 @strcmp(ptr noundef %25, ptr noundef @.str.15) #15
  %27 = icmp ne i32 %26, 0
  br i1 %27, label %28, label %35

28:                                               ; preds = %22
  %29 = load ptr, ptr %5, align 8
  %30 = getelementptr inbounds %struct.dirent, ptr %29, i32 0, i32 4
  %31 = getelementptr inbounds [256 x i8], ptr %30, i64 0, i64 0
  %32 = call i32 @strcmp(ptr noundef %31, ptr noundef @.str.16) #15
  %33 = icmp ne i32 %32, 0
  br i1 %33, label %34, label %35

34:                                               ; preds = %28
  store i8 0, ptr %6, align 1
  br label %35

35:                                               ; preds = %34, %28, %22
  br label %13, !llvm.loop !13

36:                                               ; preds = %20
  %37 = load ptr, ptr %4, align 8
  %38 = call i32 @closedir(ptr noundef %37)
  %39 = load i8, ptr %6, align 1
  %40 = trunc i8 %39 to i1
  store i1 %40, ptr %2, align 1
  br label %41

41:                                               ; preds = %36, %11
  %42 = load i1, ptr %2, align 1
  ret i1 %42
}