; Function Attrs: mustprogress nounwind uwtable
define hidden noundef zeroext i1 @_ZN2os12dir_is_emptyEPKc(ptr nocapture noundef readonly %0) local_unnamed_addr #1 align 2 {
  %2 = tail call ptr @opendir(ptr noundef %0)
  %3 = icmp eq ptr %2, null
  br i1 %3, label %22, label %.preheader.preheader

.preheader.preheader:                             ; preds = %1
  %4 = tail call ptr @readdir64(ptr noundef nonnull %2) #25
  %.not22 = icmp eq ptr %4, null
  br i1 %.not22, label %.critedge, label %sub_0

sub_0:                                            ; preds = %.preheader.preheader, %.preheader.backedge
  %.not23 = phi i1 [ %.not, %.preheader.backedge ], [ %.not22, %.preheader.preheader ]
  %5 = phi ptr [ %20, %.preheader.backedge ], [ %4, %.preheader.preheader ]
  %6 = getelementptr inbounds i8, ptr %5, i64 19
  %7 = load i8, ptr %6, align 1
  %8 = zext i8 %7 to i32
  %9 = add nsw i32 %8, -46
  %.not18 = icmp eq i32 %9, 0
  br i1 %.not18, label %.tail, label %.tail13

.tail:                                            ; preds = %sub_0
  %10 = getelementptr inbounds i8, ptr %5, i64 20
  %11 = load i8, ptr %10, align 1
  %.not11 = icmp eq i8 %11, 0
  br i1 %.not11, label %.preheader.backedge, label %sub_115

sub_115:                                          ; preds = %.tail
  %12 = getelementptr inbounds i8, ptr %5, i64 20
  %13 = load i8, ptr %12, align 1
  %14 = zext i8 %13 to i32
  %15 = add nsw i32 %14, -46
  %.not20 = icmp eq i32 %15, 0
  br i1 %.not20, label %sub_2, label %.tail13

sub_2:                                            ; preds = %sub_115
  %16 = getelementptr inbounds i8, ptr %5, i64 21
  %17 = load i8, ptr %16, align 1
  %18 = zext i8 %17 to i32
  br label %.tail13

.tail13:                                          ; preds = %sub_0, %sub_115, %sub_2
  %19 = phi i32 [ %15, %sub_115 ], [ %18, %sub_2 ], [ %9, %sub_0 ]
  %.not12 = icmp eq i32 %19, 0
  br i1 %.not12, label %.preheader.backedge, label %.critedge

.preheader.backedge:                              ; preds = %.tail, %.tail13
  %20 = tail call ptr @readdir64(ptr noundef nonnull %2) #25
  %.not = icmp eq ptr %20, null
  br i1 %.not, label %.critedge, label %sub_0, !llvm.loop !12

.critedge:                                        ; preds = %.preheader.backedge, %.tail13, %.preheader.preheader
  %.not.lcssa = phi i1 [ %.not22, %.preheader.preheader ], [ %.not, %.preheader.backedge ], [ %.not23, %.tail13 ]
  %21 = tail call i32 @closedir(ptr noundef nonnull %2)
  br label %22

22:                                               ; preds = %1, %.critedge
  %.08 = phi i1 [ %.not.lcssa, %.critedge ], [ true, %1 ]
  ret i1 %.08
}